; Function Attrs: mustprogress nofree nounwind willreturn memory(read, inaccessiblemem: none) uwtable
define ptr @uloc_getCurrentCountryID_77(ptr noundef readonly %0) local_unnamed_addr #13 personality ptr @__gxx_personality_v0 {
  br label %.preheader.i

.preheader.i:                                     ; preds = %._crit_edge.i, %1
  %2 = phi i32 [ 1, %1 ], [ %11, %._crit_edge.i ]
  %.0813.i = phi ptr [ @_ZN12_GLOBAL__N_120DEPRECATED_COUNTRIESE, %1 ], [ %10, %._crit_edge.i ]
  %3 = load ptr, ptr %.0813.i, align 8, !tbaa !56
  %.not11.i = icmp eq ptr %3, null
  br i1 %.not11.i, label %._crit_edge.i, label %.lr.ph.i

.lr.ph.i:                                         ; preds = %.preheader.i, %7
  %4 = phi ptr [ %9, %7 ], [ %3, %.preheader.i ]
  %.112.i = phi ptr [ %8, %7 ], [ %.0813.i, %.preheader.i ]
  %5 = tail call i32 @strcmp(ptr noundef nonnull readonly dereferenceable(1) %0, ptr noundef nonnull dereferenceable(1) %4) #23
  %6 = icmp eq i32 %5, 0
  br i1 %6, label %12, label %7

7:                                                ; preds = %.lr.ph.i
  %8 = getelementptr inbounds nuw i8, ptr %.112.i, i64 8
  %9 = load ptr, ptr %8, align 8, !tbaa !56
  %.not.i = icmp eq ptr %9, null
  br i1 %.not.i, label %._crit_edge.i, label %.lr.ph.i, !llvm.loop !57

._crit_edge.i:                                    ; preds = %7, %.preheader.i
  %.1.lcssa.i = phi ptr [ %.0813.i, %.preheader.i ], [ %8, %7 ]
  %10 = getelementptr inbounds nuw i8, ptr %.1.lcssa.i, i64 8
  %11 = add nuw nsw i32 %2, 1
  %exitcond.not.i = icmp eq i32 %11, 3
  br i1 %exitcond.not.i, label %_ZN12_GLOBAL__N_110_findIndexEPKPKcS1_.exit, label %.preheader.i, !llvm.loop !58

12:                                               ; preds = %.lr.ph.i
  %13 = ptrtoint ptr %.112.i to i64
  %14 = trunc i64 %13 to i32
  %15 = sub i32 %14, ptrtoint (ptr @_ZN12_GLOBAL__N_120DEPRECATED_COUNTRIESE to i32)
  %16 = lshr i32 %15, 3
  %17 = zext nneg i32 %16 to i64
  %sext = shl i64 %17, 48
  %18 = ashr exact i64 %sext, 48
  %19 = getelementptr inbounds [18 x ptr], ptr @_ZN12_GLOBAL__N_121REPLACEMENT_COUNTRIESE, i64 0, i64 %18
  %20 = load ptr, ptr %19, align 8, !tbaa !56
  br label %_ZN12_GLOBAL__N_110_findIndexEPKPKcS1_.exit

_ZN12_GLOBAL__N_110_findIndexEPKPKcS1_.exit:      ; preds = %._crit_edge.i, %12
  %21 = phi ptr [ %20, %12 ], [ %0, %._crit_edge.i ]
  ret ptr %21
}